target datalayout = "e-m:e-p270:32:32-p271:32:32-p272:64:64-i64:64-i128:128-f80:128-n8:16:32:64-S128"
target triple = "x86_64-pc-linux-gnu"

%"class.std::ios_base" = type { ptr, i64, i64, i32, i32, i32, ptr, %"struct.std::ios_base::_Words", [8 x %"struct.std::ios_base::_Words"], i32, ptr, %"class.std::locale" }
%"struct.std::ios_base::_Words" = type { ptr, i64 }
%"class.std::locale" = type { ptr }
%"class.std::__cxx11::basic_string" = type { %"struct.std::__cxx11::basic_string<char>::_Alloc_hider", i64, %union.anon }
%"struct.std::__cxx11::basic_string<char>::_Alloc_hider" = type { ptr }
%union.anon = type { i64, [8 x i8] }
%"struct.jsonnet::internal::LocationRange" = type { %"class.std::__cxx11::basic_string", %"struct.jsonnet::internal::Location", %"struct.jsonnet::internal::Location" }
%"struct.jsonnet::internal::Location" = type { i64, i64 }

@.str.8 = private unnamed_addr constant [2 x i8] c"-\00", align 1
@.str.76 = private unnamed_addr constant [2 x i8] c")\00", align 1
@.str.77 = private unnamed_addr constant [2 x i8] c":\00", align 1
@.str.78 = private unnamed_addr constant [2 x i8] c"(\00", align 1
@.str.79 = private unnamed_addr constant [4 x i8] c")-(\00", align 1

; Function Attrs: inlinehint mustprogress nounwind uwtable
define linkonce_odr noundef i32 @_ZStorSt12_Ios_IostateS_(i32 noundef %0, i32 noundef %1) #8 comdat {
  %3 = alloca i32, align 4
  %4 = alloca i32, align 4
  store i32 %0, ptr %3, align 4, !tbaa !643
  store i32 %1, ptr %4, align 4, !tbaa !643
  %5 = load i32, ptr %3, align 4, !tbaa !643
  %6 = load i32, ptr %4, align 4, !tbaa !643
  %7 = or i32 %5, %6
  ret i32 %7
}

; Function Attrs: mustprogress nounwind uwtable
define available_externally noundef i32 @_ZNKSt9basic_iosIcSt11char_traitsIcEE7rdstateEv(ptr noundef nonnull align 8 dereferenceable(264) %0) #5 align 2 {
  %2 = alloca ptr, align 8
  store ptr %0, ptr %2, align 8, !tbaa !641
  %3 = load ptr, ptr %2, align 8
  %4 = getelementptr inbounds nuw %"class.std::ios_base", ptr %3, i32 0, i32 5
  %5 = load i32, ptr %4, align 8, !tbaa !645
  ret i32 %5
}

; Function Attrs: mustprogress nounwind uwtable
define available_externally noundef ptr @_ZNKSt7__cxx1112basic_stringIcSt11char_traitsIcESaIcEE7_M_dataEv(ptr noundef nonnull align 8 dereferenceable(32) %0) #5 align 2 {
  %2 = alloca ptr, align 8
  store ptr %0, ptr %2, align 8, !tbaa !192
  %3 = load ptr, ptr %2, align 8
  %4 = getelementptr inbounds nuw %"class.std::__cxx11::basic_string", ptr %3, i32 0, i32 0
  %5 = getelementptr inbounds nuw %"struct.std::__cxx11::basic_string<char>::_Alloc_hider", ptr %4, i32 0, i32 0
  %6 = load ptr, ptr %5, align 8, !tbaa !486
  ret ptr %6
}

; Function Attrs: mustprogress nounwind uwtable
define linkonce_odr noundef i64 @_ZNSt11char_traitsIcE6lengthEPKc(ptr noundef %0) #5 comdat align 2 {
  %2 = alloca ptr, align 8
  store ptr %0, ptr %2, align 8, !tbaa !357
  %3 = load ptr, ptr %2, align 8, !tbaa !357
  %4 = call i64 @strlen(ptr noundef %3) #3
  ret i64 %4
}

; Function Attrs: mustprogress uwtable
define available_externally void @_ZNSt9basic_iosIcSt11char_traitsIcEE8setstateESt12_Ios_Iostate(ptr noundef nonnull align 8 dereferenceable(264) %0, i32 noundef %1) #4 align 2 {
  %3 = alloca ptr, align 8
  %4 = alloca i32, align 4
  store ptr %0, ptr %3, align 8, !tbaa !641
  store i32 %1, ptr %4, align 4, !tbaa !643
  %5 = load ptr, ptr %3, align 8
  %6 = call noundef i32 @_ZNKSt9basic_iosIcSt11char_traitsIcEE7rdstateEv(ptr noundef nonnull align 8 dereferenceable(264) %5)
  %7 = load i32, ptr %4, align 4, !tbaa !643
  %8 = call noundef i32 @_ZStorSt12_Ios_IostateS_(i32 noundef %6, i32 noundef %7)
  call void @_ZNSt9basic_iosIcSt11char_traitsIcEE5clearESt12_Ios_Iostate(ptr noundef nonnull align 8 dereferenceable(264) %5, i32 noundef %8)
  ret void
}

; Function Attrs: mustprogress nounwind uwtable
define linkonce_odr noundef zeroext i1 @_ZNK7jsonnet8internal8Location5isSetEv(ptr noundef nonnull align 8 dereferenceable(16) %0) #5 comdat align 2 {
  %2 = alloca ptr, align 8
  store ptr %0, ptr %2, align 8, !tbaa !653
  %3 = load ptr, ptr %2, align 8
  %4 = getelementptr inbounds nuw %"struct.jsonnet::internal::Location", ptr %3, i32 0, i32 0
  %5 = load i64, ptr %4, align 8, !tbaa !655
  %6 = icmp ne i64 %5, 0
  ret i1 %6
}

; Function Attrs: mustprogress nounwind uwtable
define available_externally noundef i64 @_ZNKSt7__cxx1112basic_stringIcSt11char_traitsIcESaIcEE4sizeEv(ptr noundef nonnull align 8 dereferenceable(32) %0) #5 align 2 {
  %2 = alloca ptr, align 8
  store ptr %0, ptr %2, align 8, !tbaa !192
  %3 = load ptr, ptr %2, align 8
  %4 = getelementptr inbounds nuw %"class.std::__cxx11::basic_string", ptr %3, i32 0, i32 1
  %5 = load i64, ptr %4, align 8, !tbaa !483
  ret i64 %5
}

; Function Attrs: mustprogress nounwind uwtable
define available_externally noundef ptr @_ZNKSt7__cxx1112basic_stringIcSt11char_traitsIcESaIcEE4dataEv(ptr noundef nonnull align 8 dereferenceable(32) %0) #5 align 2 {
  %2 = alloca ptr, align 8
  store ptr %0, ptr %2, align 8, !tbaa !192
  %3 = load ptr, ptr %2, align 8
  %4 = call noundef ptr @_ZNKSt7__cxx1112basic_stringIcSt11char_traitsIcESaIcEE7_M_dataEv(ptr noundef nonnull align 8 dereferenceable(32) %3)
  ret ptr %4
}

; Function Attrs: mustprogress uwtable
define available_externally noundef nonnull align 8 dereferenceable(8) ptr @_ZNSolsEm(ptr noundef nonnull align 8 dereferenceable(8) %0, i64 noundef %1) #4 align 2 {
  %3 = alloca ptr, align 8
  %4 = alloca i64, align 8
  store ptr %0, ptr %3, align 8, !tbaa !636
  store i64 %1, ptr %4, align 8, !tbaa !271
  %5 = load ptr, ptr %3, align 8
  %6 = load i64, ptr %4, align 8, !tbaa !271
  %7 = call noundef nonnull align 8 dereferenceable(8) ptr @_ZNSo9_M_insertImEERSoT_(ptr noundef nonnull align 8 dereferenceable(8) %5, i64 noundef %6)
  ret ptr %7
}

; Function Attrs: inlinehint mustprogress uwtable
define internal noundef nonnull align 8 dereferenceable(8) ptr @_ZN7jsonnet8internallsERSoRKNS0_8LocationE(ptr noundef nonnull align 8 dereferenceable(8) %0, ptr noundef nonnull align 8 dereferenceable(16) %1) #7 {
  %3 = alloca ptr, align 8
  %4 = alloca ptr, align 8
  store ptr %0, ptr %3, align 8, !tbaa !636
  store ptr %1, ptr %4, align 8, !tbaa !653
  %5 = load ptr, ptr %3, align 8, !tbaa !636
  %6 = load ptr, ptr %4, align 8, !tbaa !653
  %7 = getelementptr inbounds nuw %"struct.jsonnet::internal::Location", ptr %6, i32 0, i32 0
  %8 = load i64, ptr %7, align 8, !tbaa !655
  %9 = call noundef nonnull align 8 dereferenceable(8) ptr @_ZNSolsEm(ptr noundef nonnull align 8 dereferenceable(8) %5, i64 noundef %8)
  %10 = call noundef nonnull align 8 dereferenceable(8) ptr @_ZStlsISt11char_traitsIcEERSt13basic_ostreamIcT_ES5_PKc(ptr noundef nonnull align 8 dereferenceable(8) %9, ptr noundef @.str.77)
  %11 = load ptr, ptr %4, align 8, !tbaa !653
  %12 = getelementptr inbounds nuw %"struct.jsonnet::internal::Location", ptr %11, i32 0, i32 1
  %13 = load i64, ptr %12, align 8, !tbaa !656
  %14 = call noundef nonnull align 8 dereferenceable(8) ptr @_ZNSolsEm(ptr noundef nonnull align 8 dereferenceable(8) %10, i64 noundef %13)
  %15 = load ptr, ptr %3, align 8, !tbaa !636
  ret ptr %15
}

; Function Attrs: inlinehint mustprogress uwtable
define available_externally noundef nonnull align 8 dereferenceable(8) ptr @_ZStlsISt11char_traitsIcEERSt13basic_ostreamIcT_ES5_PKc(ptr noundef nonnull align 8 dereferenceable(8) %0, ptr noundef %1) #7 {
  %3 = alloca ptr, align 8
  %4 = alloca ptr, align 8
  store ptr %0, ptr %3, align 8, !tbaa !636
  store ptr %1, ptr %4, align 8, !tbaa !357
  %5 = load ptr, ptr %4, align 8, !tbaa !357
  %6 = icmp ne ptr %5, null
  br i1 %6, label %13, label %7

7:                                                ; preds = %2
  %8 = load ptr, ptr %3, align 8, !tbaa !636
  %9 = load ptr, ptr %8, align 8, !tbaa !310
  %10 = getelementptr i8, ptr %9, i64 -24
  %11 = load i64, ptr %10, align 8
  %12 = getelementptr inbounds i8, ptr %8, i64 %11
  call void @_ZNSt9basic_iosIcSt11char_traitsIcEE8setstateESt12_Ios_Iostate(ptr noundef nonnull align 8 dereferenceable(264) %12, i32 noundef 1)
  br label %19

13:                                               ; preds = %2
  %14 = load ptr, ptr %3, align 8, !tbaa !636
  %15 = load ptr, ptr %4, align 8, !tbaa !357
  %16 = load ptr, ptr %4, align 8, !tbaa !357
  %17 = call noundef i64 @_ZNSt11char_traitsIcE6lengthEPKc(ptr noundef %16)
  %18 = call noundef nonnull align 8 dereferenceable(8) ptr @_ZSt16__ostream_insertIcSt11char_traitsIcEERSt13basic_ostreamIT_T0_ES6_PKS3_l(ptr noundef nonnull align 8 dereferenceable(8) %14, ptr noundef %15, i64 noundef %17)
  br label %19

19:                                               ; preds = %13, %7
  %20 = load ptr, ptr %3, align 8, !tbaa !636
  ret ptr %20
}

; Function Attrs: mustprogress uwtable
define linkonce_odr noundef zeroext i1 @_ZNK7jsonnet8internal13LocationRange5isSetEv(ptr noundef nonnull align 8 dereferenceable(64) %0) #4 comdat align 2 {
  %2 = alloca ptr, align 8
  store ptr %0, ptr %2, align 8, !tbaa !306
  %3 = load ptr, ptr %2, align 8
  %4 = getelementptr inbounds nuw %"struct.jsonnet::internal::LocationRange", ptr %3, i32 0, i32 1
  %5 = call noundef zeroext i1 @_ZNK7jsonnet8internal8Location5isSetEv(ptr noundef nonnull align 8 dereferenceable(16) %4)
  ret i1 %5
}

; Function Attrs: inlinehint mustprogress uwtable
define available_externally noundef nonnull align 8 dereferenceable(8) ptr @_ZStlsIcSt11char_traitsIcESaIcEERSt13basic_ostreamIT_T0_ES7_RKNSt7__cxx1112basic_stringIS4_S5_T1_EE(ptr noundef nonnull align 8 dereferenceable(8) %0, ptr noundef nonnull align 8 dereferenceable(32) %1) #7 {
  %3 = alloca ptr, align 8
  %4 = alloca ptr, align 8
  store ptr %0, ptr %3, align 8, !tbaa !636
  store ptr %1, ptr %4, align 8, !tbaa !192
  %5 = load ptr, ptr %3, align 8, !tbaa !636
  %6 = load ptr, ptr %4, align 8, !tbaa !192
  %7 = call noundef ptr @_ZNKSt7__cxx1112basic_stringIcSt11char_traitsIcESaIcEE4dataEv(ptr noundef nonnull align 8 dereferenceable(32) %6) #3
  %8 = load ptr, ptr %4, align 8, !tbaa !192
  %9 = call noundef i64 @_ZNKSt7__cxx1112basic_stringIcSt11char_traitsIcESaIcEE4sizeEv(ptr noundef nonnull align 8 dereferenceable(32) %8) #3
  %10 = call noundef nonnull align 8 dereferenceable(8) ptr @_ZSt16__ostream_insertIcSt11char_traitsIcEERSt13basic_ostreamIT_T0_ES6_PKS3_l(ptr noundef nonnull align 8 dereferenceable(8) %5, ptr noundef %7, i64 noundef %9)
  ret ptr %10
}

; Function Attrs: mustprogress nounwind uwtable
define available_externally noundef i64 @_ZNKSt7__cxx1112basic_stringIcSt11char_traitsIcESaIcEE6lengthEv(ptr noundef nonnull align 8 dereferenceable(32) %0) #5 align 2 {
  %2 = alloca ptr, align 8
  store ptr %0, ptr %2, align 8, !tbaa !192
  %3 = load ptr, ptr %2, align 8
  %4 = getelementptr inbounds nuw %"class.std::__cxx11::basic_string", ptr %3, i32 0, i32 1
  %5 = load i64, ptr %4, align 8, !tbaa !483
  ret i64 %5
}

; Function Attrs: inlinehint mustprogress uwtable
define internal noundef nonnull align 8 dereferenceable(8) ptr @_ZN7jsonnet8internallsERSoRKNS0_13LocationRangeE(ptr noundef nonnull align 8 dereferenceable(8) %0, ptr noundef nonnull align 8 dereferenceable(64) %1) #7 {
  %3 = alloca ptr, align 8
  %4 = alloca ptr, align 8
  store ptr %0, ptr %3, align 8, !tbaa !636
  store ptr %1, ptr %4, align 8, !tbaa !306
  %5 = load ptr, ptr %4, align 8, !tbaa !306
  %6 = getelementptr inbounds nuw %"struct.jsonnet::internal::LocationRange", ptr %5, i32 0, i32 0
  %7 = call noundef i64 @_ZNKSt7__cxx1112basic_stringIcSt11char_traitsIcESaIcEE6lengthEv(ptr noundef nonnull align 8 dereferenceable(32) %6) #3
  %8 = icmp ugt i64 %7, 0
  br i1 %8, label %9, label %14

9:                                                ; preds = %2
  %10 = load ptr, ptr %3, align 8, !tbaa !636
  %11 = load ptr, ptr %4, align 8, !tbaa !306
  %12 = getelementptr inbounds nuw %"struct.jsonnet::internal::LocationRange", ptr %11, i32 0, i32 0
  %13 = call noundef nonnull align 8 dereferenceable(8) ptr @_ZStlsIcSt11char_traitsIcESaIcEERSt13basic_ostreamIT_T0_ES7_RKNSt7__cxx1112basic_stringIS4_S5_T1_EE(ptr noundef nonnull align 8 dereferenceable(8) %10, ptr noundef nonnull align 8 dereferenceable(32) %12)
  br label %14

14:                                               ; preds = %9, %2
  %15 = load ptr, ptr %4, align 8, !tbaa !306
  %16 = call noundef zeroext i1 @_ZNK7jsonnet8internal13LocationRange5isSetEv(ptr noundef nonnull align 8 dereferenceable(64) %15)
  br i1 %16, label %17, label %75

17:                                               ; preds = %14
  %18 = load ptr, ptr %4, align 8, !tbaa !306
  %19 = getelementptr inbounds nuw %"struct.jsonnet::internal::LocationRange", ptr %18, i32 0, i32 0
  %20 = call noundef i64 @_ZNKSt7__cxx1112basic_stringIcSt11char_traitsIcESaIcEE6lengthEv(ptr noundef nonnull align 8 dereferenceable(32) %19) #3
  %21 = icmp ugt i64 %20, 0
  br i1 %21, label %22, label %25

22:                                               ; preds = %17
  %23 = load ptr, ptr %3, align 8, !tbaa !636
  %24 = call noundef nonnull align 8 dereferenceable(8) ptr @_ZStlsISt11char_traitsIcEERSt13basic_ostreamIcT_ES5_PKc(ptr noundef nonnull align 8 dereferenceable(8) %23, ptr noundef @.str.77)
  br label %25

25:                                               ; preds = %22, %17
  %26 = load ptr, ptr %4, align 8, !tbaa !306
  %27 = getelementptr inbounds nuw %"struct.jsonnet::internal::LocationRange", ptr %26, i32 0, i32 1
  %28 = getelementptr inbounds nuw %"struct.jsonnet::internal::Location", ptr %27, i32 0, i32 0
  %29 = load i64, ptr %28, align 8, !tbaa !576
  %30 = load ptr, ptr %4, align 8, !tbaa !306
  %31 = getelementptr inbounds nuw %"struct.jsonnet::internal::LocationRange", ptr %30, i32 0, i32 2
  %32 = getelementptr inbounds nuw %"struct.jsonnet::internal::Location", ptr %31, i32 0, i32 0
  %33 = load i64, ptr %32, align 8, !tbaa !638
  %34 = icmp eq i64 %29, %33
  br i1 %34, label %35, label %63

35:                                               ; preds = %25
  %36 = load ptr, ptr %4, align 8, !tbaa !306
  %37 = getelementptr inbounds nuw %"struct.jsonnet::internal::LocationRange", ptr %36, i32 0, i32 1
  %38 = getelementptr inbounds nuw %"struct.jsonnet::internal::Location", ptr %37, i32 0, i32 1
  %39 = load i64, ptr %38, align 8, !tbaa !639
  %40 = load ptr, ptr %4, align 8, !tbaa !306
  %41 = getelementptr inbounds nuw %"struct.jsonnet::internal::LocationRange", ptr %40, i32 0, i32 2
  %42 = getelementptr inbounds nuw %"struct.jsonnet::internal::Location", ptr %41, i32 0, i32 1
  %43 = load i64, ptr %42, align 8, !tbaa !640
  %44 = sub i64 %43, 1
  %45 = icmp eq i64 %39, %44
  br i1 %45, label %46, label %51

46:                                               ; preds = %35
  %47 = load ptr, ptr %3, align 8, !tbaa !636
  %48 = load ptr, ptr %4, align 8, !tbaa !306
  %49 = getelementptr inbounds nuw %"struct.jsonnet::internal::LocationRange", ptr %48, i32 0, i32 1
  %50 = call noundef nonnull align 8 dereferenceable(8) ptr @_ZN7jsonnet8internallsERSoRKNS0_8LocationE(ptr noundef nonnull align 8 dereferenceable(8) %47, ptr noundef nonnull align 8 dereferenceable(16) %49)
  br label %62

51:                                               ; preds = %35
  %52 = load ptr, ptr %3, align 8, !tbaa !636
  %53 = load ptr, ptr %4, align 8, !tbaa !306
  %54 = getelementptr inbounds nuw %"struct.jsonnet::internal::LocationRange", ptr %53, i32 0, i32 1
  %55 = call noundef nonnull align 8 dereferenceable(8) ptr @_ZN7jsonnet8internallsERSoRKNS0_8LocationE(ptr noundef nonnull align 8 dereferenceable(8) %52, ptr noundef nonnull align 8 dereferenceable(16) %54)
  %56 = call noundef nonnull align 8 dereferenceable(8) ptr @_ZStlsISt11char_traitsIcEERSt13basic_ostreamIcT_ES5_PKc(ptr noundef nonnull align 8 dereferenceable(8) %55, ptr noundef @.str.8)
  %57 = load ptr, ptr %4, align 8, !tbaa !306
  %58 = getelementptr inbounds nuw %"struct.jsonnet::internal::LocationRange", ptr %57, i32 0, i32 2
  %59 = getelementptr inbounds nuw %"struct.jsonnet::internal::Location", ptr %58, i32 0, i32 1
  %60 = load i64, ptr %59, align 8, !tbaa !640
  %61 = call noundef nonnull align 8 dereferenceable(8) ptr @_ZNSolsEm(ptr noundef nonnull align 8 dereferenceable(8) %56, i64 noundef %60)
  br label %62

62:                                               ; preds = %51, %46
  br label %74

63:                                               ; preds = %25
  %64 = load ptr, ptr %3, align 8, !tbaa !636
  %65 = call noundef nonnull align 8 dereferenceable(8) ptr @_ZStlsISt11char_traitsIcEERSt13basic_ostreamIcT_ES5_PKc(ptr noundef nonnull align 8 dereferenceable(8) %64, ptr noundef @.str.78)
  %66 = load ptr, ptr %4, align 8, !tbaa !306
  %67 = getelementptr inbounds nuw %"struct.jsonnet::internal::LocationRange", ptr %66, i32 0, i32 1
  %68 = call noundef nonnull align 8 dereferenceable(8) ptr @_ZN7jsonnet8internallsERSoRKNS0_8LocationE(ptr noundef nonnull align 8 dereferenceable(8) %65, ptr noundef nonnull align 8 dereferenceable(16) %67)
  %69 = call noundef nonnull align 8 dereferenceable(8) ptr @_ZStlsISt11char_traitsIcEERSt13basic_ostreamIcT_ES5_PKc(ptr noundef nonnull align 8 dereferenceable(8) %68, ptr noundef @.str.79)
  %70 = load ptr, ptr %4, align 8, !tbaa !306
  %71 = getelementptr inbounds nuw %"struct.jsonnet::internal::LocationRange", ptr %70, i32 0, i32 2
  %72 = call noundef nonnull align 8 dereferenceable(8) ptr @_ZN7jsonnet8internallsERSoRKNS0_8LocationE(ptr noundef nonnull align 8 dereferenceable(8) %69, ptr noundef nonnull align 8 dereferenceable(16) %71)
  %73 = call noundef nonnull align 8 dereferenceable(8) ptr @_ZStlsISt11char_traitsIcEERSt13basic_ostreamIcT_ES5_PKc(ptr noundef nonnull align 8 dereferenceable(8) %72, ptr noundef @.str.76)
  br label %74

74:                                               ; preds = %63, %62
  br label %75

75:                                               ; preds = %74, %14
  %76 = load ptr, ptr %3, align 8, !tbaa !636
  ret ptr %76
}