; Function Attrs: inlinehint mustprogress uwtable
define internal fastcc noundef nonnull align 8 dereferenceable(8) ptr @_ZN7jsonnet8internallsERSoRKNS0_13LocationRangeE(ptr noundef nonnull returned align 8 dereferenceable(8) %0, ptr noundef nonnull readonly align 8 captures(none) dereferenceable(64) %1) unnamed_addr #6 {
  %3 = getelementptr inbounds nuw i8, ptr %1, i64 8
  %4 = load i64, ptr %3, align 8, !tbaa !22
  %.not = icmp eq i64 %4, 0
  br i1 %.not, label %8, label %5

5:                                                ; preds = %2
  %6 = load ptr, ptr %1, align 8, !tbaa !19
  %7 = tail call noundef nonnull align 8 dereferenceable(8) ptr @_ZSt16__ostream_insertIcSt11char_traitsIcEERSt13basic_ostreamIT_T0_ES6_PKS3_l(ptr noundef nonnull align 8 dereferenceable(8) %0, ptr noundef %6, i64 noundef %4)
  br label %8

8:                                                ; preds = %5, %2
  %9 = getelementptr inbounds nuw i8, ptr %1, i64 32
  %10 = load i64, ptr %9, align 8, !tbaa !568
  %.not20 = icmp eq i64 %10, 0
  br i1 %.not20, label %51, label %11

11:                                               ; preds = %8
  %12 = load i64, ptr %3, align 8, !tbaa !22
  %.not19 = icmp eq i64 %12, 0
  br i1 %.not19, label %15, label %13

13:                                               ; preds = %11
  %14 = tail call noundef nonnull align 8 dereferenceable(8) ptr @_ZSt16__ostream_insertIcSt11char_traitsIcEERSt13basic_ostreamIT_T0_ES6_PKS3_l(ptr noundef nonnull align 8 dereferenceable(8) %0, ptr noundef nonnull @.str.77, i64 noundef 1)
  %.pre = load i64, ptr %9, align 8, !tbaa !459
  br label %15

15:                                               ; preds = %13, %11
  %16 = phi i64 [ %.pre, %13 ], [ %10, %11 ]
  %17 = getelementptr inbounds nuw i8, ptr %1, i64 48
  %18 = load i64, ptr %17, align 8, !tbaa !569
  %19 = icmp eq i64 %16, %18
  br i1 %19, label %20, label %35

20:                                               ; preds = %15
  %21 = getelementptr inbounds nuw i8, ptr %1, i64 40
  %22 = load i64, ptr %21, align 8, !tbaa !570
  %23 = getelementptr inbounds nuw i8, ptr %1, i64 56
  %24 = load i64, ptr %23, align 8, !tbaa !571
  %25 = add i64 %24, -1
  %26 = icmp eq i64 %22, %25
  %27 = tail call noundef nonnull align 8 dereferenceable(8) ptr @_ZNSo9_M_insertImEERSoT_(ptr noundef nonnull align 8 dereferenceable(8) %0, i64 noundef %16)
  %28 = tail call noundef nonnull align 8 dereferenceable(8) ptr @_ZSt16__ostream_insertIcSt11char_traitsIcEERSt13basic_ostreamIT_T0_ES6_PKS3_l(ptr noundef nonnull align 8 dereferenceable(8) %27, ptr noundef nonnull @.str.77, i64 noundef 1)
  %29 = load i64, ptr %21, align 8, !tbaa !572
  %30 = tail call noundef nonnull align 8 dereferenceable(8) ptr @_ZNSo9_M_insertImEERSoT_(ptr noundef nonnull align 8 dereferenceable(8) %27, i64 noundef %29)
  br i1 %26, label %51, label %31

31:                                               ; preds = %20
  %32 = tail call noundef nonnull align 8 dereferenceable(8) ptr @_ZSt16__ostream_insertIcSt11char_traitsIcEERSt13basic_ostreamIT_T0_ES6_PKS3_l(ptr noundef nonnull align 8 dereferenceable(8) %0, ptr noundef nonnull @.str.8, i64 noundef 1)
  %33 = load i64, ptr %23, align 8, !tbaa !571
  %34 = tail call noundef nonnull align 8 dereferenceable(8) ptr @_ZNSo9_M_insertImEERSoT_(ptr noundef nonnull align 8 dereferenceable(8) %0, i64 noundef %33)
  br label %51

35:                                               ; preds = %15
  %36 = tail call noundef nonnull align 8 dereferenceable(8) ptr @_ZSt16__ostream_insertIcSt11char_traitsIcEERSt13basic_ostreamIT_T0_ES6_PKS3_l(ptr noundef nonnull align 8 dereferenceable(8) %0, ptr noundef nonnull @.str.78, i64 noundef 1)
  %37 = load i64, ptr %9, align 8, !tbaa !568
  %38 = tail call noundef nonnull align 8 dereferenceable(8) ptr @_ZNSo9_M_insertImEERSoT_(ptr noundef nonnull align 8 dereferenceable(8) %0, i64 noundef %37)
  %39 = tail call noundef nonnull align 8 dereferenceable(8) ptr @_ZSt16__ostream_insertIcSt11char_traitsIcEERSt13basic_ostreamIT_T0_ES6_PKS3_l(ptr noundef nonnull align 8 dereferenceable(8) %38, ptr noundef nonnull @.str.77, i64 noundef 1)
  %40 = getelementptr inbounds nuw i8, ptr %1, i64 40
  %41 = load i64, ptr %40, align 8, !tbaa !572
  %42 = tail call noundef nonnull align 8 dereferenceable(8) ptr @_ZNSo9_M_insertImEERSoT_(ptr noundef nonnull align 8 dereferenceable(8) %38, i64 noundef %41)
  %43 = tail call noundef nonnull align 8 dereferenceable(8) ptr @_ZSt16__ostream_insertIcSt11char_traitsIcEERSt13basic_ostreamIT_T0_ES6_PKS3_l(ptr noundef nonnull align 8 dereferenceable(8) %0, ptr noundef nonnull @.str.79, i64 noundef 3)
  %44 = load i64, ptr %17, align 8, !tbaa !568
  %45 = tail call noundef nonnull align 8 dereferenceable(8) ptr @_ZNSo9_M_insertImEERSoT_(ptr noundef nonnull align 8 dereferenceable(8) %0, i64 noundef %44)
  %46 = tail call noundef nonnull align 8 dereferenceable(8) ptr @_ZSt16__ostream_insertIcSt11char_traitsIcEERSt13basic_ostreamIT_T0_ES6_PKS3_l(ptr noundef nonnull align 8 dereferenceable(8) %45, ptr noundef nonnull @.str.77, i64 noundef 1)
  %47 = getelementptr inbounds nuw i8, ptr %1, i64 56
  %48 = load i64, ptr %47, align 8, !tbaa !572
  %49 = tail call noundef nonnull align 8 dereferenceable(8) ptr @_ZNSo9_M_insertImEERSoT_(ptr noundef nonnull align 8 dereferenceable(8) %45, i64 noundef %48)
  %50 = tail call noundef nonnull align 8 dereferenceable(8) ptr @_ZSt16__ostream_insertIcSt11char_traitsIcEERSt13basic_ostreamIT_T0_ES6_PKS3_l(ptr noundef nonnull align 8 dereferenceable(8) %0, ptr noundef nonnull @.str.76, i64 noundef 1)
  br label %51

51:                                               ; preds = %20, %35, %31, %8
  ret ptr %0
}